target datalayout = "e-m:e-p270:32:32-p271:32:32-p272:64:64-i64:64-i128:128-f80:128-n8:16:32:64-S128"
target triple = "x86_64-pc-linux-gnu"

%struct.VC1Context = type { %struct.MpegEncContext, %struct.IntraX8Context, %struct.H264ChromaContext, %struct.VC1DSPContext, i32, i32, i32, i32, i32, i32, i32, i32, i32, i32, i32, i32, i32, i32, i32, i32, i32, i32, i32, i32, i32, i32, i32, i32, i32, i32, i32, i32, i32, i32, i32, i32, i32, i32, i32, i32, i8, i8, i32, i32, i32, i32, i8, i8, [4 x [64 x i8]], i32, i32, ptr, ptr, i8, i8, i8, i8, i32, i32, i32, i32, i32, i32, i8, ptr, ptr, i32, i32, i32, i32, i32, ptr, [3 x ptr], i8, i8, i16, i8, i8, i32, i8, i8, ptr, i32, i32, ptr, ptr, ptr, i32, i32, i32, i32, [2 x [256 x i8]], [2 x [256 x i8]], [2 x [256 x i8]], [2 x [256 x i8]], [2 x [256 x i8]], [2 x [256 x i8]], ptr, ptr, i32, ptr, i32, i32, i32, i32, i32, i32, i8, i8, i32, i8, i8, i8, i8, i8, i8, i8, i32, i8, i8, ptr, i32, ptr, i32, i8, i8, i8, i8, i8, i8, i32, i32, i8, i8, ptr, ptr, ptr, ptr, i8, i8, ptr, i32, [64 x i8], ptr, ptr, ptr, [2 x ptr], ptr, [2 x ptr], i32, i32, i32, i32, i32, i32, i32, i32, [2 x i32], i32, i32, i32, i32, i32, i32, i32, i32, i32, i32, i32, i32, i32, i32, ptr, i32, i32, i32, i32, [2 x [2 x ptr]], i32, i32, i32, ptr, i32, i32, i32, i32, i32, ptr, ptr, ptr, ptr, ptr, ptr, i8, i8, i8, i32, i32, i32 }
%struct.MpegEncContext = type { ptr, i32, i32, i32, [12 x i32], i32, %struct.ScanTable, %struct.ScanTable, [64 x i8], [64 x i8], ptr, ptr, i32, i32, i32, i32, i32, i32, i32, i32, i32, i32, i32, i32, i32, i32, i32, i32, i32, i32, i32, i32, i64, i64, ptr, %struct.BufferPoolContext, i32, i32, %union.anon.0, i32, %struct.MPVWorkPicture, %struct.MPVWorkPicture, %struct.MPVWorkPicture, i32, [3 x i32], ptr, [3 x ptr], ptr, ptr, ptr, ptr, ptr, ptr, [3 x ptr], i32, ptr, ptr, ptr, ptr, %struct.ScratchpadContext, i32, i32, i32, i32, i32, i32, %struct.BlockDSPContext, %struct.H264ChromaContext, %struct.HpelDSPContext, %struct.IDCTDSPContext, %struct.QpelDSPContext, %struct.VideoDSPContext, %struct.H263DSPContext, ptr, [2 x [2 x ptr]], i32, i32, [2 x [4 x [2 x i32]]], [2 x [2 x i32]], [2 x [2 x [2 x i32]]], [2 x [64 x i16]], i32, i32, i32, i32, i32, [6 x i32], [6 x i32], [3 x ptr], ptr, [64 x i16], [64 x i16], [64 x i16], [64 x i16], i32, i32, %struct.GetBitContext, i32, i32, i32, i32, i32, i32, i32, i32, i32, i32, i32, i32, i32, i32, i32, i64, i64, i16, i16, i16, i16, i32, i32, i32, i32, i32, i32, i32, i32, i32, [3 x i32], i32, i32, i32, i32, i32, i32, %struct.GetBitContext, i32, [2 x [2 x i32]], i32, i32, i32, i32, i32, i32, i32, i32, i32, i32, i32, i32, i32, i32, [2 x i32], i32, i32, ptr, ptr, ptr, ptr, ptr, i32, i32, %struct.ERContext }
%struct.ScanTable = type { ptr, [64 x i8], [64 x i8] }
%struct.BufferPoolContext = type { ptr, ptr, ptr, ptr, ptr, i32, i32, i32 }
%union.anon.0 = type { [32 x ptr] }
%struct.MPVWorkPicture = type { [3 x ptr], [3 x i64], ptr, ptr, [2 x ptr], ptr, ptr, [2 x ptr], i32 }
%struct.ScratchpadContext = type { ptr, ptr, %union.anon.1, i32 }
%union.anon.1 = type { ptr }
%struct.BlockDSPContext = type { ptr, ptr, [2 x ptr] }
%struct.HpelDSPContext = type { [4 x [4 x ptr]], [4 x [4 x ptr]], [4 x [4 x ptr]], [4 x ptr] }
%struct.IDCTDSPContext = type { ptr, ptr, ptr, ptr, ptr, ptr, [64 x i8], i32, i32 }
%struct.QpelDSPContext = type { [2 x [16 x ptr]], [2 x [16 x ptr]], [2 x [16 x ptr]] }
%struct.VideoDSPContext = type { ptr, ptr }
%struct.H263DSPContext = type { ptr, ptr }
%struct.GetBitContext = type { ptr, ptr, i32, i32, i32 }
%struct.ERContext = type { ptr, ptr, i32, ptr, i32, i32, i32, i64, i64, i32, i32, ptr, ptr, [3 x ptr], ptr, ptr, [2 x [4 x [2 x i32]]], %struct.ERPicture, %struct.ERPicture, %struct.ERPicture, [2 x ptr], [2 x ptr], i16, i16, i32, i32, ptr, ptr }
%struct.ERPicture = type { ptr, ptr, ptr, [2 x ptr], [2 x ptr], ptr, i32 }
%struct.IntraX8Context = type { [4 x ptr], ptr, [3 x ptr], i32, ptr, [3 x [64 x i8]], %struct.WMV2DSPContext, [64 x i8], ptr, ptr, %struct.IntraX8DSPContext, %struct.BlockDSPContext, i32, i32, i32, i32, ptr, ptr, i32, i32, i32, [3 x ptr], [42 x i8], i32, i32, i32, i32, i32, i32, i32, i32, i32, i32, i32 }
%struct.WMV2DSPContext = type { ptr, ptr, [8 x ptr], i32 }
%struct.IntraX8DSPContext = type { ptr, ptr, [12 x ptr], ptr }
%struct.H264ChromaContext = type { [4 x ptr], [4 x ptr] }
%struct.VC1DSPContext = type { ptr, ptr, ptr, ptr, ptr, ptr, ptr, ptr, ptr, ptr, ptr, ptr, ptr, ptr, ptr, ptr, ptr, ptr, [2 x [16 x ptr]], [2 x [16 x ptr]], [3 x ptr], [3 x ptr], ptr, ptr, ptr, ptr, ptr, ptr, ptr }

@ff_wmv1_scantable = external hidden constant [4 x [64 x i8]], align 16
@ff_vc1_adv_interlaced_8x8_zz = external hidden constant [64 x i8], align 16

; Function Attrs: cold nounwind optsize uwtable
define void @ff_vc1_init_transposed_scantables(ptr noundef %0) #0 {
  %2 = alloca ptr, align 8
  %3 = alloca i32, align 4
  store ptr %0, ptr %2, align 8, !tbaa !29
  call void @llvm.lifetime.start.p0(i64 4, ptr %3) #11
  store i32 0, ptr %3, align 4, !tbaa !35
  br label %4

4:                                                ; preds = %112, %1
  %5 = load i32, ptr %3, align 4, !tbaa !35
  %6 = icmp slt i32 %5, 64
  br i1 %6, label %7, label %115

7:                                                ; preds = %4
  %8 = load i32, ptr %3, align 4, !tbaa !35
  %9 = sext i32 %8 to i64
  %10 = getelementptr inbounds [64 x i8], ptr @ff_wmv1_scantable, i64 0, i64 %9
  %11 = load i8, ptr %10, align 1, !tbaa !98
  %12 = zext i8 %11 to i32
  %13 = ashr i32 %12, 3
  %14 = load i32, ptr %3, align 4, !tbaa !35
  %15 = sext i32 %14 to i64
  %16 = getelementptr inbounds [64 x i8], ptr @ff_wmv1_scantable, i64 0, i64 %15
  %17 = load i8, ptr %16, align 1, !tbaa !98
  %18 = zext i8 %17 to i32
  %19 = and i32 %18, 7
  %20 = shl i32 %19, 3
  %21 = or i32 %13, %20
  %22 = trunc i32 %21 to i8
  %23 = load ptr, ptr %2, align 8, !tbaa !29
  %24 = getelementptr inbounds nuw %struct.VC1Context, ptr %23, i32 0, i32 48
  %25 = getelementptr inbounds [4 x [64 x i8]], ptr %24, i64 0, i64 0
  %26 = load i32, ptr %3, align 4, !tbaa !35
  %27 = sext i32 %26 to i64
  %28 = getelementptr inbounds [64 x i8], ptr %25, i64 0, i64 %27
  store i8 %22, ptr %28, align 1, !tbaa !98
  %29 = load i32, ptr %3, align 4, !tbaa !35
  %30 = sext i32 %29 to i64
  %31 = getelementptr inbounds [64 x i8], ptr getelementptr inbounds ([4 x [64 x i8]], ptr @ff_wmv1_scantable, i64 0, i64 1), i64 0, i64 %30
  %32 = load i8, ptr %31, align 1, !tbaa !98
  %33 = zext i8 %32 to i32
  %34 = ashr i32 %33, 3
  %35 = load i32, ptr %3, align 4, !tbaa !35
  %36 = sext i32 %35 to i64
  %37 = getelementptr inbounds [64 x i8], ptr getelementptr inbounds ([4 x [64 x i8]], ptr @ff_wmv1_scantable, i64 0, i64 1), i64 0, i64 %36
  %38 = load i8, ptr %37, align 1, !tbaa !98
  %39 = zext i8 %38 to i32
  %40 = and i32 %39, 7
  %41 = shl i32 %40, 3
  %42 = or i32 %34, %41
  %43 = trunc i32 %42 to i8
  %44 = load ptr, ptr %2, align 8, !tbaa !29
  %45 = getelementptr inbounds nuw %struct.VC1Context, ptr %44, i32 0, i32 48
  %46 = getelementptr inbounds [4 x [64 x i8]], ptr %45, i64 0, i64 1
  %47 = load i32, ptr %3, align 4, !tbaa !35
  %48 = sext i32 %47 to i64
  %49 = getelementptr inbounds [64 x i8], ptr %46, i64 0, i64 %48
  store i8 %43, ptr %49, align 1, !tbaa !98
  %50 = load i32, ptr %3, align 4, !tbaa !35
  %51 = sext i32 %50 to i64
  %52 = getelementptr inbounds [64 x i8], ptr getelementptr inbounds ([4 x [64 x i8]], ptr @ff_wmv1_scantable, i64 0, i64 2), i64 0, i64 %51
  %53 = load i8, ptr %52, align 1, !tbaa !98
  %54 = zext i8 %53 to i32
  %55 = ashr i32 %54, 3
  %56 = load i32, ptr %3, align 4, !tbaa !35
  %57 = sext i32 %56 to i64
  %58 = getelementptr inbounds [64 x i8], ptr getelementptr inbounds ([4 x [64 x i8]], ptr @ff_wmv1_scantable, i64 0, i64 2), i64 0, i64 %57
  %59 = load i8, ptr %58, align 1, !tbaa !98
  %60 = zext i8 %59 to i32
  %61 = and i32 %60, 7
  %62 = shl i32 %61, 3
  %63 = or i32 %55, %62
  %64 = trunc i32 %63 to i8
  %65 = load ptr, ptr %2, align 8, !tbaa !29
  %66 = getelementptr inbounds nuw %struct.VC1Context, ptr %65, i32 0, i32 48
  %67 = getelementptr inbounds [4 x [64 x i8]], ptr %66, i64 0, i64 2
  %68 = load i32, ptr %3, align 4, !tbaa !35
  %69 = sext i32 %68 to i64
  %70 = getelementptr inbounds [64 x i8], ptr %67, i64 0, i64 %69
  store i8 %64, ptr %70, align 1, !tbaa !98
  %71 = load i32, ptr %3, align 4, !tbaa !35
  %72 = sext i32 %71 to i64
  %73 = getelementptr inbounds [64 x i8], ptr getelementptr inbounds ([4 x [64 x i8]], ptr @ff_wmv1_scantable, i64 0, i64 3), i64 0, i64 %72
  %74 = load i8, ptr %73, align 1, !tbaa !98
  %75 = zext i8 %74 to i32
  %76 = ashr i32 %75, 3
  %77 = load i32, ptr %3, align 4, !tbaa !35
  %78 = sext i32 %77 to i64
  %79 = getelementptr inbounds [64 x i8], ptr getelementptr inbounds ([4 x [64 x i8]], ptr @ff_wmv1_scantable, i64 0, i64 3), i64 0, i64 %78
  %80 = load i8, ptr %79, align 1, !tbaa !98
  %81 = zext i8 %80 to i32
  %82 = and i32 %81, 7
  %83 = shl i32 %82, 3
  %84 = or i32 %76, %83
  %85 = trunc i32 %84 to i8
  %86 = load ptr, ptr %2, align 8, !tbaa !29
  %87 = getelementptr inbounds nuw %struct.VC1Context, ptr %86, i32 0, i32 48
  %88 = getelementptr inbounds [4 x [64 x i8]], ptr %87, i64 0, i64 3
  %89 = load i32, ptr %3, align 4, !tbaa !35
  %90 = sext i32 %89 to i64
  %91 = getelementptr inbounds [64 x i8], ptr %88, i64 0, i64 %90
  store i8 %85, ptr %91, align 1, !tbaa !98
  %92 = load i32, ptr %3, align 4, !tbaa !35
  %93 = sext i32 %92 to i64
  %94 = getelementptr inbounds [64 x i8], ptr @ff_vc1_adv_interlaced_8x8_zz, i64 0, i64 %93
  %95 = load i8, ptr %94, align 1, !tbaa !98
  %96 = zext i8 %95 to i32
  %97 = ashr i32 %96, 3
  %98 = load i32, ptr %3, align 4, !tbaa !35
  %99 = sext i32 %98 to i64
  %100 = getelementptr inbounds [64 x i8], ptr @ff_vc1_adv_interlaced_8x8_zz, i64 0, i64 %99
  %101 = load i8, ptr %100, align 1, !tbaa !98
  %102 = zext i8 %101 to i32
  %103 = and i32 %102, 7
  %104 = shl i32 %103, 3
  %105 = or i32 %97, %104
  %106 = trunc i32 %105 to i8
  %107 = load ptr, ptr %2, align 8, !tbaa !29
  %108 = getelementptr inbounds nuw %struct.VC1Context, ptr %107, i32 0, i32 142
  %109 = load i32, ptr %3, align 4, !tbaa !35
  %110 = sext i32 %109 to i64
  %111 = getelementptr inbounds [64 x i8], ptr %108, i64 0, i64 %110
  store i8 %106, ptr %111, align 1, !tbaa !98
  br label %112

112:                                              ; preds = %7
  %113 = load i32, ptr %3, align 4, !tbaa !35
  %114 = add nsw i32 %113, 1
  store i32 %114, ptr %3, align 4, !tbaa !35
  br label %4, !llvm.loop !99

115:                                              ; preds = %4
  %116 = load ptr, ptr %2, align 8, !tbaa !29
  %117 = getelementptr inbounds nuw %struct.VC1Context, ptr %116, i32 0, i32 49
  store i32 0, ptr %117, align 8, !tbaa !100
  %118 = load ptr, ptr %2, align 8, !tbaa !29
  %119 = getelementptr inbounds nuw %struct.VC1Context, ptr %118, i32 0, i32 50
  store i32 3, ptr %119, align 4, !tbaa !101
  call void @llvm.lifetime.end.p0(i64 4, ptr %3) #11
  ret void
}