; Function Attrs: cold nofree norecurse nosync nounwind optsize memory(argmem: write) uwtable
define void @ff_vc1_init_transposed_scantables(ptr noundef writeonly captures(none) %0) local_unnamed_addr #3 {
  %2 = getelementptr inbounds nuw i8, ptr %0, i64 6550
  %3 = getelementptr inbounds nuw i8, ptr %0, i64 6614
  %4 = getelementptr inbounds nuw i8, ptr %0, i64 6678
  %5 = getelementptr inbounds nuw i8, ptr %0, i64 6742
  %6 = getelementptr inbounds nuw i8, ptr %0, i64 10260
  br label %7

7:                                                ; preds = %1, %7
  %indvars.iv = phi i64 [ 0, %1 ], [ %indvars.iv.next, %7 ]
  %8 = getelementptr inbounds nuw [64 x i8], ptr @ff_wmv1_scantable, i64 0, i64 %indvars.iv
  %9 = load i8, ptr %8, align 1, !tbaa !92
  %10 = lshr i8 %9, 3
  %11 = shl i8 %9, 3
  %12 = and i8 %11, 56
  %13 = or i8 %12, %10
  %14 = getelementptr inbounds nuw [64 x i8], ptr %2, i64 0, i64 %indvars.iv
  store i8 %13, ptr %14, align 1, !tbaa !92
  %15 = getelementptr inbounds nuw [64 x i8], ptr getelementptr inbounds nuw (i8, ptr @ff_wmv1_scantable, i64 64), i64 0, i64 %indvars.iv
  %16 = load i8, ptr %15, align 1, !tbaa !92
  %17 = lshr i8 %16, 3
  %18 = shl i8 %16, 3
  %19 = and i8 %18, 56
  %20 = or i8 %19, %17
  %21 = getelementptr inbounds nuw [64 x i8], ptr %3, i64 0, i64 %indvars.iv
  store i8 %20, ptr %21, align 1, !tbaa !92
  %22 = getelementptr inbounds nuw [64 x i8], ptr getelementptr inbounds nuw (i8, ptr @ff_wmv1_scantable, i64 128), i64 0, i64 %indvars.iv
  %23 = load i8, ptr %22, align 1, !tbaa !92
  %24 = lshr i8 %23, 3
  %25 = shl i8 %23, 3
  %26 = and i8 %25, 56
  %27 = or i8 %26, %24
  %28 = getelementptr inbounds nuw [64 x i8], ptr %4, i64 0, i64 %indvars.iv
  store i8 %27, ptr %28, align 1, !tbaa !92
  %29 = getelementptr inbounds nuw [64 x i8], ptr getelementptr inbounds nuw (i8, ptr @ff_wmv1_scantable, i64 192), i64 0, i64 %indvars.iv
  %30 = load i8, ptr %29, align 1, !tbaa !92
  %31 = lshr i8 %30, 3
  %32 = shl i8 %30, 3
  %33 = and i8 %32, 56
  %34 = or i8 %33, %31
  %35 = getelementptr inbounds nuw [64 x i8], ptr %5, i64 0, i64 %indvars.iv
  store i8 %34, ptr %35, align 1, !tbaa !92
  %36 = getelementptr inbounds nuw [64 x i8], ptr @ff_vc1_adv_interlaced_8x8_zz, i64 0, i64 %indvars.iv
  %37 = load i8, ptr %36, align 1, !tbaa !92
  %38 = lshr i8 %37, 3
  %39 = shl i8 %37, 3
  %40 = and i8 %39, 56
  %41 = or i8 %40, %38
  %42 = getelementptr inbounds nuw [64 x i8], ptr %6, i64 0, i64 %indvars.iv
  store i8 %41, ptr %42, align 1, !tbaa !92
  %indvars.iv.next = add nuw nsw i64 %indvars.iv, 1
  %exitcond.not = icmp eq i64 %indvars.iv.next, 64
  br i1 %exitcond.not, label %43, label %7, !llvm.loop !93

43:                                               ; preds = %7
  %44 = getelementptr inbounds nuw i8, ptr %0, i64 6808
  store i32 0, ptr %44, align 8, !tbaa !94
  %45 = getelementptr inbounds nuw i8, ptr %0, i64 6812
  store i32 3, ptr %45, align 4, !tbaa !95
  ret void
}